target datalayout = "e-m:e-p270:32:32-p271:32:32-p272:64:64-i64:64-i128:128-f80:128-n8:16:32:64-S128"
target triple = "x86_64-pc-linux-gnu"

%struct.Gli_Man_t_ = type { ptr, ptr, ptr, ptr, ptr, i32, i32, i32, i32, i32, ptr, ptr }
%struct.Vec_Int_t_ = type { i32, i32, ptr }

; Function Attrs: inlinehint nounwind uwtable
define internal ptr @Vec_IntAlloc(i32 noundef %0) #3 {
  %2 = alloca i32, align 4
  %3 = alloca ptr, align 8
  store i32 %0, ptr %2, align 4, !tbaa !3
  call void @llvm.lifetime.start.p0(i64 8, ptr %3) #10
  %4 = call noalias ptr @malloc(i64 noundef 16) #12
  store ptr %4, ptr %3, align 8, !tbaa !21
  %5 = load i32, ptr %2, align 4, !tbaa !3
  %6 = icmp sgt i32 %5, 0
  br i1 %6, label %7, label %11

7:                                                ; preds = %1
  %8 = load i32, ptr %2, align 4, !tbaa !3
  %9 = icmp slt i32 %8, 16
  br i1 %9, label %10, label %11

10:                                               ; preds = %7
  store i32 16, ptr %2, align 4, !tbaa !3
  br label %11

11:                                               ; preds = %10, %7, %1
  %12 = load ptr, ptr %3, align 8, !tbaa !21
  %13 = getelementptr inbounds nuw %struct.Vec_Int_t_, ptr %12, i32 0, i32 1
  store i32 0, ptr %13, align 4, !tbaa !22
  %14 = load i32, ptr %2, align 4, !tbaa !3
  %15 = load ptr, ptr %3, align 8, !tbaa !21
  %16 = getelementptr inbounds nuw %struct.Vec_Int_t_, ptr %15, i32 0, i32 0
  store i32 %14, ptr %16, align 8, !tbaa !24
  %17 = load ptr, ptr %3, align 8, !tbaa !21
  %18 = getelementptr inbounds nuw %struct.Vec_Int_t_, ptr %17, i32 0, i32 0
  %19 = load i32, ptr %18, align 8, !tbaa !24
  %20 = icmp ne i32 %19, 0
  br i1 %20, label %21, label %28

21:                                               ; preds = %11
  %22 = load ptr, ptr %3, align 8, !tbaa !21
  %23 = getelementptr inbounds nuw %struct.Vec_Int_t_, ptr %22, i32 0, i32 0
  %24 = load i32, ptr %23, align 8, !tbaa !24
  %25 = sext i32 %24 to i64
  %26 = mul i64 4, %25
  %27 = call noalias ptr @malloc(i64 noundef %26) #12
  br label %29

28:                                               ; preds = %11
  br label %29

29:                                               ; preds = %28, %21
  %30 = phi ptr [ %27, %21 ], [ null, %28 ]
  %31 = load ptr, ptr %3, align 8, !tbaa !21
  %32 = getelementptr inbounds nuw %struct.Vec_Int_t_, ptr %31, i32 0, i32 2
  store ptr %30, ptr %32, align 8, !tbaa !25
  %33 = load ptr, ptr %3, align 8, !tbaa !21
  call void @llvm.lifetime.end.p0(i64 8, ptr %3) #10
  ret ptr %33
}

; Function Attrs: nounwind uwtable
define ptr @Gli_ManAlloc(i32 noundef %0, i32 noundef %1, i32 noundef %2) #0 {
  %4 = alloca i32, align 4
  %5 = alloca i32, align 4
  %6 = alloca i32, align 4
  %7 = alloca ptr, align 8
  store i32 %0, ptr %4, align 4, !tbaa !3
  store i32 %1, ptr %5, align 4, !tbaa !3
  store i32 %2, ptr %6, align 4, !tbaa !3
  call void @llvm.lifetime.start.p0(i64 8, ptr %7) #10
  %8 = load i32, ptr %4, align 4, !tbaa !3
  %9 = sext i32 %8 to i64
  %10 = mul i64 8, %9
  %11 = add i64 20, %10
  %12 = load i32, ptr %6, align 4, !tbaa !3
  %13 = mul nsw i32 2, %12
  %14 = sext i32 %13 to i64
  %15 = add i64 %11, %14
  %16 = call noalias ptr @calloc(i64 noundef %15, i64 noundef 4) #11
  store ptr %16, ptr %7, align 8, !tbaa !7
  %17 = load i32, ptr %5, align 4, !tbaa !3
  %18 = load ptr, ptr %7, align 8, !tbaa !7
  %19 = getelementptr inbounds nuw %struct.Gli_Man_t_, ptr %18, i32 0, i32 6
  store i32 %17, ptr %19, align 4, !tbaa !10
  %20 = call ptr @Vec_IntAlloc(i32 noundef 1000)
  %21 = load ptr, ptr %7, align 8, !tbaa !7
  %22 = getelementptr inbounds nuw %struct.Gli_Man_t_, ptr %21, i32 0, i32 0
  store ptr %20, ptr %22, align 8, !tbaa !14
  %23 = call ptr @Vec_IntAlloc(i32 noundef 1000)
  %24 = load ptr, ptr %7, align 8, !tbaa !7
  %25 = getelementptr inbounds nuw %struct.Gli_Man_t_, ptr %24, i32 0, i32 1
  store ptr %23, ptr %25, align 8, !tbaa !15
  %26 = call ptr @Vec_IntAlloc(i32 noundef 1000)
  %27 = load ptr, ptr %7, align 8, !tbaa !7
  %28 = getelementptr inbounds nuw %struct.Gli_Man_t_, ptr %27, i32 0, i32 2
  store ptr %26, ptr %28, align 8, !tbaa !16
  %29 = call ptr @Vec_IntAlloc(i32 noundef 1000)
  %30 = load ptr, ptr %7, align 8, !tbaa !7
  %31 = getelementptr inbounds nuw %struct.Gli_Man_t_, ptr %30, i32 0, i32 3
  store ptr %29, ptr %31, align 8, !tbaa !17
  %32 = call ptr @Vec_IntAlloc(i32 noundef 1000)
  %33 = load ptr, ptr %7, align 8, !tbaa !7
  %34 = getelementptr inbounds nuw %struct.Gli_Man_t_, ptr %33, i32 0, i32 4
  store ptr %32, ptr %34, align 8, !tbaa !18
  %35 = load i32, ptr %4, align 4, !tbaa !3
  %36 = sext i32 %35 to i64
  %37 = mul i64 8, %36
  %38 = load i32, ptr %6, align 4, !tbaa !3
  %39 = mul nsw i32 2, %38
  %40 = sext i32 %39 to i64
  %41 = add i64 %37, %40
  %42 = trunc i64 %41 to i32
  %43 = load ptr, ptr %7, align 8, !tbaa !7
  %44 = getelementptr inbounds nuw %struct.Gli_Man_t_, ptr %43, i32 0, i32 9
  store i32 %42, ptr %44, align 8, !tbaa !19
  %45 = load ptr, ptr %7, align 8, !tbaa !7
  %46 = getelementptr inbounds %struct.Gli_Man_t_, ptr %45, i64 1
  %47 = load ptr, ptr %7, align 8, !tbaa !7
  %48 = getelementptr inbounds nuw %struct.Gli_Man_t_, ptr %47, i32 0, i32 10
  store ptr %46, ptr %48, align 8, !tbaa !20
  %49 = load ptr, ptr %7, align 8, !tbaa !7
  call void @llvm.lifetime.end.p0(i64 8, ptr %7) #10
  ret ptr %49
}