; Function Attrs: mustprogress nofree nounwind willreturn memory(write, argmem: none, inaccessiblemem: readwrite) uwtable
define noundef ptr @Gli_ManAlloc(i32 noundef %0, i32 noundef %1, i32 noundef %2) local_unnamed_addr #0 {
  %4 = sext i32 %0 to i64
  %5 = shl nsw i64 %4, 3
  %6 = add nsw i64 %5, 20
  %7 = shl nsw i32 %2, 1
  %8 = sext i32 %7 to i64
  %9 = add nsw i64 %6, %8
  %10 = tail call noalias ptr @calloc(i64 noundef %9, i64 noundef 4) #22
  %11 = getelementptr inbounds nuw i8, ptr %10, i64 44
  store i32 %1, ptr %11, align 4, !tbaa !3
  %12 = tail call noalias dereferenceable_or_null(16) ptr @malloc(i64 noundef 16) #23
  %13 = getelementptr inbounds nuw i8, ptr %12, i64 4
  store i32 0, ptr %13, align 4, !tbaa !11
  store i32 1000, ptr %12, align 8, !tbaa !13
  %14 = tail call noalias dereferenceable_or_null(4000) ptr @malloc(i64 noundef 4000) #23
  %15 = getelementptr inbounds nuw i8, ptr %12, i64 8
  store ptr %14, ptr %15, align 8, !tbaa !14
  store ptr %12, ptr %10, align 8, !tbaa !15
  %16 = tail call noalias dereferenceable_or_null(16) ptr @malloc(i64 noundef 16) #23
  %17 = getelementptr inbounds nuw i8, ptr %16, i64 4
  store i32 0, ptr %17, align 4, !tbaa !11
  store i32 1000, ptr %16, align 8, !tbaa !13
  %18 = tail call noalias dereferenceable_or_null(4000) ptr @malloc(i64 noundef 4000) #23
  %19 = getelementptr inbounds nuw i8, ptr %16, i64 8
  store ptr %18, ptr %19, align 8, !tbaa !14
  %20 = getelementptr inbounds nuw i8, ptr %10, i64 8
  store ptr %16, ptr %20, align 8, !tbaa !16
  %21 = tail call noalias dereferenceable_or_null(16) ptr @malloc(i64 noundef 16) #23
  %22 = getelementptr inbounds nuw i8, ptr %21, i64 4
  store i32 0, ptr %22, align 4, !tbaa !11
  store i32 1000, ptr %21, align 8, !tbaa !13
  %23 = tail call noalias dereferenceable_or_null(4000) ptr @malloc(i64 noundef 4000) #23
  %24 = getelementptr inbounds nuw i8, ptr %21, i64 8
  store ptr %23, ptr %24, align 8, !tbaa !14
  %25 = getelementptr inbounds nuw i8, ptr %10, i64 16
  store ptr %21, ptr %25, align 8, !tbaa !17
  %26 = tail call noalias dereferenceable_or_null(16) ptr @malloc(i64 noundef 16) #23
  %27 = getelementptr inbounds nuw i8, ptr %26, i64 4
  store i32 0, ptr %27, align 4, !tbaa !11
  store i32 1000, ptr %26, align 8, !tbaa !13
  %28 = tail call noalias dereferenceable_or_null(4000) ptr @malloc(i64 noundef 4000) #23
  %29 = getelementptr inbounds nuw i8, ptr %26, i64 8
  store ptr %28, ptr %29, align 8, !tbaa !14
  %30 = getelementptr inbounds nuw i8, ptr %10, i64 24
  store ptr %26, ptr %30, align 8, !tbaa !18
  %31 = tail call noalias dereferenceable_or_null(16) ptr @malloc(i64 noundef 16) #23
  %32 = getelementptr inbounds nuw i8, ptr %31, i64 4
  store i32 0, ptr %32, align 4, !tbaa !11
  store i32 1000, ptr %31, align 8, !tbaa !13
  %33 = tail call noalias dereferenceable_or_null(4000) ptr @malloc(i64 noundef 4000) #23
  %34 = getelementptr inbounds nuw i8, ptr %31, i64 8
  store ptr %33, ptr %34, align 8, !tbaa !14
  %35 = getelementptr inbounds nuw i8, ptr %10, i64 32
  store ptr %31, ptr %35, align 8, !tbaa !19
  %36 = trunc i64 %5 to i32
  %37 = add i32 %7, %36
  %38 = getelementptr inbounds nuw i8, ptr %10, i64 56
  store i32 %37, ptr %38, align 8, !tbaa !20
  %39 = getelementptr inbounds nuw i8, ptr %10, i64 80
  %40 = getelementptr inbounds nuw i8, ptr %10, i64 64
  store ptr %39, ptr %40, align 8, !tbaa !21
  ret ptr %10
}